target datalayout = "e-m:e-p270:32:32-p271:32:32-p272:64:64-i64:64-i128:128-f80:128-n8:16:32:64-S128"
target triple = "x86_64-pc-linux-gnu"

%"struct.pkpy::Bytes" = type <{ ptr, i32, [4 x i8] }>

; Function Attrs: mustprogress nounwind uwtable
define noundef zeroext i1 @_ZNK4pkpy5ByteseqERKS0_(ptr noundef nonnull align 8 dereferenceable(12) %0, ptr noundef nonnull align 8 dereferenceable(12) %1) #4 align 2 {
  %3 = alloca i1, align 1
  %4 = alloca ptr, align 8
  %5 = alloca ptr, align 8
  %6 = alloca i32, align 4
  store ptr %0, ptr %4, align 8
  store ptr %1, ptr %5, align 8
  %7 = load ptr, ptr %4, align 8
  %8 = getelementptr inbounds %"struct.pkpy::Bytes", ptr %7, i32 0, i32 1
  %9 = load i32, ptr %8, align 8
  %10 = load ptr, ptr %5, align 8
  %11 = getelementptr inbounds %"struct.pkpy::Bytes", ptr %10, i32 0, i32 1
  %12 = load i32, ptr %11, align 8
  %13 = icmp ne i32 %9, %12
  br i1 %13, label %14, label %15

14:                                               ; preds = %2
  store i1 false, ptr %3, align 1
  br label %44

15:                                               ; preds = %2
  store i32 0, ptr %6, align 4
  br label %16

16:                                               ; preds = %40, %15
  %17 = load i32, ptr %6, align 4
  %18 = getelementptr inbounds %"struct.pkpy::Bytes", ptr %7, i32 0, i32 1
  %19 = load i32, ptr %18, align 8
  %20 = icmp slt i32 %17, %19
  br i1 %20, label %21, label %43

21:                                               ; preds = %16
  %22 = getelementptr inbounds %"struct.pkpy::Bytes", ptr %7, i32 0, i32 0
  %23 = load ptr, ptr %22, align 8
  %24 = load i32, ptr %6, align 4
  %25 = sext i32 %24 to i64
  %26 = getelementptr inbounds i8, ptr %23, i64 %25
  %27 = load i8, ptr %26, align 1
  %28 = zext i8 %27 to i32
  %29 = load ptr, ptr %5, align 8
  %30 = getelementptr inbounds %"struct.pkpy::Bytes", ptr %29, i32 0, i32 0
  %31 = load ptr, ptr %30, align 8
  %32 = load i32, ptr %6, align 4
  %33 = sext i32 %32 to i64
  %34 = getelementptr inbounds i8, ptr %31, i64 %33
  %35 = load i8, ptr %34, align 1
  %36 = zext i8 %35 to i32
  %37 = icmp ne i32 %28, %36
  br i1 %37, label %38, label %39

38:                                               ; preds = %21
  store i1 false, ptr %3, align 1
  br label %44

39:                                               ; preds = %21
  br label %40

40:                                               ; preds = %39
  %41 = load i32, ptr %6, align 4
  %42 = add nsw i32 %41, 1
  store i32 %42, ptr %6, align 4
  br label %16, !llvm.loop !4

43:                                               ; preds = %16
  store i1 true, ptr %3, align 1
  br label %44

44:                                               ; preds = %43, %38, %14
  %45 = load i1, ptr %3, align 1
  ret i1 %45
}