; Function Attrs: mustprogress nofree norecurse nosync nounwind willreturn memory(read, inaccessiblemem: none) uwtable
define noundef zeroext i1 @_ZNK4pkpy5ByteseqERKS0_(ptr nocapture noundef nonnull readonly align 8 dereferenceable(12) %0, ptr nocapture noundef nonnull readonly align 8 dereferenceable(12) %1) local_unnamed_addr #3 align 2 {
  %3 = getelementptr inbounds i8, ptr %0, i64 8
  %4 = load i32, ptr %3, align 8
  %5 = getelementptr inbounds i8, ptr %1, i64 8
  %6 = load i32, ptr %5, align 8
  %.not = icmp eq i32 %4, %6
  br i1 %.not, label %.preheader, label %.loopexit

.preheader:                                       ; preds = %2
  %7 = icmp sgt i32 %4, 0
  br i1 %7, label %.lr.ph, label %.loopexit

.lr.ph:                                           ; preds = %.preheader
  %8 = load ptr, ptr %0, align 8
  %9 = load ptr, ptr %1, align 8
  %wide.trip.count = zext nneg i32 %4 to i64
  br label %10

10:                                               ; preds = %10, %.lr.ph
  %indvars.iv = phi i64 [ 0, %.lr.ph ], [ %indvars.iv.next, %10 ]
  %11 = getelementptr inbounds i8, ptr %8, i64 %indvars.iv
  %12 = load i8, ptr %11, align 1
  %13 = getelementptr inbounds i8, ptr %9, i64 %indvars.iv
  %14 = load i8, ptr %13, align 1
  %.not8 = icmp eq i8 %12, %14
  %indvars.iv.next = add nuw nsw i64 %indvars.iv, 1
  %exitcond.not = icmp ne i64 %indvars.iv.next, %wide.trip.count
  %or.cond.not = select i1 %.not8, i1 %exitcond.not, i1 false
  br i1 %or.cond.not, label %10, label %.loopexit, !llvm.loop !4

.loopexit:                                        ; preds = %10, %.preheader, %2
  %.07 = phi i1 [ false, %2 ], [ true, %.preheader ], [ %.not8, %10 ]
  ret i1 %.07
}